target datalayout = "e-m:e-p270:32:32-p271:32:32-p272:64:64-i64:64-i128:128-f80:128-n8:16:32:64-S128"
target triple = "x86_64-pc-linux-gnu"

@hf_bssgp_num_si_psi = internal global i32 0, align 4
@hf_bssgp_type = internal global i32 0, align 4
@hf_bssgp_si = internal global i32 0, align 4
@hf_bssgp_psi = internal global i32 0, align 4
@.str.467 = private unnamed_addr constant [8 x i8] c"SI (%u)\00", align 1
@.str.468 = private unnamed_addr constant [9 x i8] c"PSI (%u)\00", align 1

; Function Attrs: null_pointer_is_valid sspstrong uwtable
define internal zeroext i16 @de_bssgp_sipsi_container(ptr noundef %0, ptr noundef %1, ptr noundef %2, i32 noundef %3, i32 noundef %4, ptr noundef %5, i32 noundef %6) #1 {
  %8 = alloca ptr, align 8
  %9 = alloca ptr, align 8
  %10 = alloca ptr, align 8
  %11 = alloca i32, align 4
  %12 = alloca i32, align 4
  %13 = alloca ptr, align 8
  %14 = alloca i32, align 4
  %15 = alloca i32, align 4
  %16 = alloca i8, align 1
  %17 = alloca i8, align 1
  %18 = alloca i8, align 1
  %19 = alloca i8, align 1
  store ptr %0, ptr %8, align 8
  store ptr %1, ptr %9, align 8
  store ptr %2, ptr %10, align 8
  store i32 %3, ptr %11, align 4
  store i32 %4, ptr %12, align 4
  store ptr %5, ptr %13, align 8
  store i32 %6, ptr %14, align 4
  call void @llvm.lifetime.start.p0(i64 4, ptr %15) #4
  call void @llvm.lifetime.start.p0(i64 1, ptr %16) #4
  call void @llvm.lifetime.start.p0(i64 1, ptr %17) #4
  call void @llvm.lifetime.start.p0(i64 1, ptr %18) #4
  call void @llvm.lifetime.start.p0(i64 1, ptr %19) #4
  %20 = load i32, ptr %11, align 4
  store i32 %20, ptr %15, align 4
  %21 = load ptr, ptr %8, align 8
  %22 = load i32, ptr %15, align 4
  %23 = call zeroext i8 @tvb_get_uint8(ptr noundef %21, i32 noundef %22)
  store i8 %23, ptr %16, align 1
  %24 = load i8, ptr %16, align 1
  %25 = zext i8 %24 to i32
  %26 = ashr i32 %25, 1
  %27 = trunc i32 %26 to i8
  store i8 %27, ptr %17, align 1
  %28 = load i8, ptr %16, align 1
  %29 = zext i8 %28 to i32
  %30 = and i32 %29, 1
  %31 = trunc i32 %30 to i8
  store i8 %31, ptr %18, align 1
  %32 = load ptr, ptr %9, align 8
  %33 = load i32, ptr @hf_bssgp_num_si_psi, align 4
  %34 = load ptr, ptr %8, align 8
  %35 = load i32, ptr %15, align 4
  %36 = call ptr @proto_tree_add_item(ptr noundef %32, i32 noundef %33, ptr noundef %34, i32 noundef %35, i32 noundef 1, i32 noundef 0)
  %37 = load ptr, ptr %9, align 8
  %38 = load i32, ptr @hf_bssgp_type, align 4
  %39 = load ptr, ptr %8, align 8
  %40 = load i32, ptr %15, align 4
  %41 = call ptr @proto_tree_add_item(ptr noundef %37, i32 noundef %38, ptr noundef %39, i32 noundef %40, i32 noundef 1, i32 noundef 0)
  %42 = load i32, ptr %15, align 4
  %43 = add i32 %42, 1
  store i32 %43, ptr %15, align 4
  %44 = load i8, ptr %18, align 1
  %45 = zext i8 %44 to i32
  %46 = icmp eq i32 %45, 0
  br i1 %46, label %47, label %69

47:                                               ; preds = %7
  store i8 0, ptr %19, align 1
  br label %48

48:                                               ; preds = %65, %47
  %49 = load i8, ptr %19, align 1
  %50 = zext i8 %49 to i32
  %51 = load i8, ptr %17, align 1
  %52 = zext i8 %51 to i32
  %53 = icmp slt i32 %50, %52
  br i1 %53, label %54, label %68

54:                                               ; preds = %48
  %55 = load ptr, ptr %9, align 8
  %56 = load i32, ptr @hf_bssgp_si, align 4
  %57 = load ptr, ptr %8, align 8
  %58 = load i32, ptr %15, align 4
  %59 = load i8, ptr %19, align 1
  %60 = zext i8 %59 to i32
  %61 = add i32 %60, 1
  %62 = call ptr (ptr, i32, ptr, i32, i32, ptr, ptr, ...) @proto_tree_add_bytes_format(ptr noundef %55, i32 noundef %56, ptr noundef %57, i32 noundef %58, i32 noundef 21, ptr noundef null, ptr noundef @.str.467, i32 noundef %61)
  %63 = load i32, ptr %15, align 4
  %64 = add i32 %63, 21
  store i32 %64, ptr %15, align 4
  br label %65

65:                                               ; preds = %54
  %66 = load i8, ptr %19, align 1
  %67 = add i8 %66, 1
  store i8 %67, ptr %19, align 1
  br label %48, !llvm.loop !15

68:                                               ; preds = %48
  br label %91

69:                                               ; preds = %7
  store i8 0, ptr %19, align 1
  br label %70

70:                                               ; preds = %87, %69
  %71 = load i8, ptr %19, align 1
  %72 = zext i8 %71 to i32
  %73 = load i8, ptr %17, align 1
  %74 = zext i8 %73 to i32
  %75 = icmp slt i32 %72, %74
  br i1 %75, label %76, label %90

76:                                               ; preds = %70
  %77 = load ptr, ptr %9, align 8
  %78 = load i32, ptr @hf_bssgp_psi, align 4
  %79 = load ptr, ptr %8, align 8
  %80 = load i32, ptr %15, align 4
  %81 = load i8, ptr %19, align 1
  %82 = zext i8 %81 to i32
  %83 = add i32 %82, 1
  %84 = call ptr (ptr, i32, ptr, i32, i32, ptr, ptr, ...) @proto_tree_add_bytes_format(ptr noundef %77, i32 noundef %78, ptr noundef %79, i32 noundef %80, i32 noundef 22, ptr noundef null, ptr noundef @.str.468, i32 noundef %83)
  %85 = load i32, ptr %15, align 4
  %86 = add i32 %85, 22
  store i32 %86, ptr %15, align 4
  br label %87

87:                                               ; preds = %76
  %88 = load i8, ptr %19, align 1
  %89 = add i8 %88, 1
  store i8 %89, ptr %19, align 1
  br label %70, !llvm.loop !16

90:                                               ; preds = %70
  br label %91

91:                                               ; preds = %90, %68
  %92 = load i32, ptr %15, align 4
  %93 = load i32, ptr %11, align 4
  %94 = sub i32 %92, %93
  %95 = trunc i32 %94 to i16
  call void @llvm.lifetime.end.p0(i64 1, ptr %19) #4
  call void @llvm.lifetime.end.p0(i64 1, ptr %18) #4
  call void @llvm.lifetime.end.p0(i64 1, ptr %17) #4
  call void @llvm.lifetime.end.p0(i64 1, ptr %16) #4
  call void @llvm.lifetime.end.p0(i64 4, ptr %15) #4
  ret i16 %95
}