; Function Attrs: null_pointer_is_valid sspstrong uwtable
define internal noundef zeroext i16 @de_bssgp_sipsi_container(ptr noundef %0, ptr noundef %1, ptr readnone captures(none) %2, i32 noundef %3, i32 %4, ptr readnone captures(none) %5, i32 %6) #1 {
  %8 = tail call zeroext i8 @tvb_get_uint8(ptr noundef %0, i32 noundef %3)
  %9 = lshr i8 %8, 1
  %10 = and i8 %8, 1
  %11 = load i32, ptr @hf_bssgp_num_si_psi, align 4
  %12 = tail call ptr @proto_tree_add_item(ptr noundef %1, i32 noundef %11, ptr noundef %0, i32 noundef %3, i32 noundef 1, i32 noundef 0)
  %13 = load i32, ptr @hf_bssgp_type, align 4
  %14 = tail call ptr @proto_tree_add_item(ptr noundef %1, i32 noundef %13, ptr noundef %0, i32 noundef %3, i32 noundef 1, i32 noundef 0)
  %15 = add i32 %3, 1
  %16 = icmp eq i8 %10, 0
  %.not42 = icmp ult i8 %8, 2
  br i1 %16, label %.preheader, label %.preheader34

.preheader34:                                     ; preds = %7
  br i1 %.not42, label %.loopexit, label %.lr.ph.preheader

.lr.ph.preheader:                                 ; preds = %.preheader34
  %wide.trip.count = zext nneg i8 %9 to i32
  br label %.lr.ph

.preheader:                                       ; preds = %7
  br i1 %.not42, label %.loopexit, label %.lr.ph40.preheader

.lr.ph40.preheader:                               ; preds = %.preheader
  %wide.trip.count49 = zext nneg i8 %9 to i32
  br label %.lr.ph40

.lr.ph40:                                         ; preds = %.lr.ph40.preheader, %.lr.ph40
  %indvars.iv46 = phi i32 [ 0, %.lr.ph40.preheader ], [ %18, %.lr.ph40 ]
  %.03038 = phi i32 [ %15, %.lr.ph40.preheader ], [ %20, %.lr.ph40 ]
  %17 = load i32, ptr @hf_bssgp_si, align 4
  %18 = add nuw nsw i32 %indvars.iv46, 1
  %19 = tail call ptr (ptr, i32, ptr, i32, i32, ptr, ptr, ...) @proto_tree_add_bytes_format(ptr noundef %1, i32 noundef %17, ptr noundef %0, i32 noundef %.03038, i32 noundef 21, ptr noundef null, ptr noundef nonnull @.str.467, i32 noundef %18)
  %20 = add i32 %.03038, 21
  %exitcond50.not = icmp eq i32 %18, %wide.trip.count49
  br i1 %exitcond50.not, label %.loopexit, label %.lr.ph40, !llvm.loop !13

.lr.ph:                                           ; preds = %.lr.ph.preheader, %.lr.ph
  %indvars.iv = phi i32 [ 0, %.lr.ph.preheader ], [ %22, %.lr.ph ]
  %.236 = phi i32 [ %15, %.lr.ph.preheader ], [ %24, %.lr.ph ]
  %21 = load i32, ptr @hf_bssgp_psi, align 4
  %22 = add nuw nsw i32 %indvars.iv, 1
  %23 = tail call ptr (ptr, i32, ptr, i32, i32, ptr, ptr, ...) @proto_tree_add_bytes_format(ptr noundef %1, i32 noundef %21, ptr noundef %0, i32 noundef %.236, i32 noundef 22, ptr noundef null, ptr noundef nonnull @.str.468, i32 noundef %22)
  %24 = add i32 %.236, 22
  %exitcond.not = icmp eq i32 %22, %wide.trip.count
  br i1 %exitcond.not, label %.loopexit, label %.lr.ph, !llvm.loop !14

.loopexit:                                        ; preds = %.lr.ph, %.lr.ph40, %.preheader34, %.preheader
  %.131 = phi i32 [ %15, %.preheader ], [ %15, %.preheader34 ], [ %20, %.lr.ph40 ], [ %24, %.lr.ph ]
  %25 = sub i32 %.131, %3
  %26 = trunc i32 %25 to i16
  ret i16 %26
}